target datalayout = "e-m:e-p270:32:32-p271:32:32-p272:64:64-i64:64-i128:128-f80:128-n8:16:32:64-S128"
target triple = "x86_64-unknown-linux-gnu"

; Function Attrs: nounwind uwtable
define hidden i32 @X509V3_EXT_REQ_add_nconf(ptr noundef %conf, ptr noundef %ctx, ptr noundef %section, ptr noundef %req) #0 {
entry:
  %retval = alloca i32, align 4
  %conf.addr = alloca ptr, align 8
  %ctx.addr = alloca ptr, align 8
  %section.addr = alloca ptr, align 8
  %req.addr = alloca ptr, align 8
  %extlist = alloca ptr, align 8
  %sk = alloca ptr, align 8
  %i = alloca i32, align 4
  store ptr %conf, ptr %conf.addr, align 8
  store ptr %ctx, ptr %ctx.addr, align 8
  store ptr %section, ptr %section.addr, align 8
  store ptr %req, ptr %req.addr, align 8
  store ptr null, ptr %extlist, align 8
  store ptr null, ptr %sk, align 8
  %0 = load ptr, ptr %req.addr, align 8
  %tobool = icmp ne ptr %0, null
  br i1 %tobool, label %if.then, label %if.end

if.then:                                          ; preds = %entry
  store ptr %extlist, ptr %sk, align 8
  br label %if.end

if.end:                                           ; preds = %if.then, %entry
  %1 = load ptr, ptr %conf.addr, align 8
  %2 = load ptr, ptr %ctx.addr, align 8
  %3 = load ptr, ptr %section.addr, align 8
  %4 = load ptr, ptr %sk, align 8
  %call = call i32 @X509V3_EXT_add_nconf_sk(ptr noundef %1, ptr noundef %2, ptr noundef %3, ptr noundef %4)
  store i32 %call, ptr %i, align 4
  %5 = load i32, ptr %i, align 4
  %tobool1 = icmp ne i32 %5, 0
  br i1 %tobool1, label %lor.lhs.false, label %if.then3

lor.lhs.false:                                    ; preds = %if.end
  %6 = load ptr, ptr %sk, align 8
  %tobool2 = icmp ne ptr %6, null
  br i1 %tobool2, label %if.end4, label %if.then3

if.then3:                                         ; preds = %lor.lhs.false, %if.end
  %7 = load i32, ptr %i, align 4
  store i32 %7, ptr %retval, align 4
  br label %return

if.end4:                                          ; preds = %lor.lhs.false
  %8 = load ptr, ptr %req.addr, align 8
  %9 = load ptr, ptr %extlist, align 8
  %call5 = call i32 @X509_REQ_add_extensions(ptr noundef %8, ptr noundef %9)
  store i32 %call5, ptr %i, align 4
  %10 = load ptr, ptr %extlist, align 8
  call void @sk_pop_free(ptr noundef %10, ptr noundef @X509_EXTENSION_free)
  %11 = load i32, ptr %i, align 4
  store i32 %11, ptr %retval, align 4
  br label %return

return:                                           ; preds = %if.end4, %if.then3
  %12 = load i32, ptr %retval, align 4
  ret i32 %12
}