; Function Attrs: nounwind uwtable
define hidden i32 @X509V3_EXT_REQ_add_nconf(ptr noundef %conf, ptr noundef %ctx, ptr noundef %section, ptr noundef %req) local_unnamed_addr #0 {
entry:
  %extlist = alloca ptr, align 8
  store ptr null, ptr %extlist, align 8
  %tobool = icmp ne ptr %req, null
  %spec.store.select = select i1 %tobool, ptr %extlist, ptr null
  %call = call i32 @X509V3_EXT_add_nconf_sk(ptr noundef %conf, ptr noundef %ctx, ptr noundef %section, ptr noundef %spec.store.select)
  %tobool1 = icmp ne i32 %call, 0
  %or.cond = and i1 %tobool, %tobool1
  br i1 %or.cond, label %if.end4, label %return

if.end4:                                          ; preds = %entry
  %0 = load ptr, ptr %extlist, align 8
  %call5 = call i32 @X509_REQ_add_extensions(ptr noundef nonnull %req, ptr noundef %0) #10
  %1 = load ptr, ptr %extlist, align 8
  call void @sk_pop_free(ptr noundef %1, ptr noundef nonnull @X509_EXTENSION_free) #10
  br label %return

return:                                           ; preds = %entry, %if.end4
  %retval.0 = phi i32 [ %call5, %if.end4 ], [ %call, %entry ]
  ret i32 %retval.0
}